target datalayout = "e-m:e-p270:32:32-p271:32:32-p272:64:64-i64:64-i128:128-f80:128-n8:16:32:64-S128"
target triple = "x86_64-pc-linux-gnu"

%struct._rtp_info = type { i32, i8, i8, i32, i32, i16, i32, i32, i64, i32, i32, i8, i32, i32, i8, i32, ptr, ptr, i32, i32, ptr, i8, ptr, i8 }

; Function Attrs: mustprogress null_pointer_is_valid sspstrong uwtable
define noundef i32 @_ZN15RtpPlayerDialog9tapPacketEPvP12_packet_infoP12epan_dissectPKvj(ptr noundef %0, ptr noundef %1, ptr noundef %2, ptr noundef %3, i32 noundef %4) #0 align 2 {
  %6 = alloca i32, align 4
  %7 = alloca ptr, align 8
  %8 = alloca ptr, align 8
  %9 = alloca ptr, align 8
  %10 = alloca ptr, align 8
  %11 = alloca i32, align 4
  %12 = alloca ptr, align 8
  %13 = alloca i32, align 4
  %14 = alloca ptr, align 8
  store ptr %0, ptr %7, align 8
  store ptr %1, ptr %8, align 8
  store ptr %2, ptr %9, align 8
  store ptr %3, ptr %10, align 8
  store i32 %4, ptr %11, align 4
  call void @llvm.lifetime.start.p0(i64 8, ptr %12) #26
  %15 = load ptr, ptr %7, align 8
  store ptr %15, ptr %12, align 8
  %16 = load ptr, ptr %12, align 8
  %17 = icmp ne ptr %16, null
  br i1 %17, label %19, label %18

18:                                               ; preds = %5
  store i32 0, ptr %6, align 4
  store i32 1, ptr %13, align 4
  br label %35

19:                                               ; preds = %5
  call void @llvm.lifetime.start.p0(i64 8, ptr %14) #26
  %20 = load ptr, ptr %10, align 8
  store ptr %20, ptr %14, align 8
  %21 = load ptr, ptr %14, align 8
  %22 = icmp ne ptr %21, null
  br i1 %22, label %24, label %23

23:                                               ; preds = %19
  store i32 0, ptr %6, align 4
  store i32 1, ptr %13, align 4
  br label %34

24:                                               ; preds = %19
  %25 = load ptr, ptr %14, align 8
  %26 = getelementptr inbounds nuw %struct._rtp_info, ptr %25, i32 0, i32 0
  %27 = load i32, ptr %26, align 8
  %28 = icmp ne i32 %27, 2
  br i1 %28, label %29, label %30

29:                                               ; preds = %24
  store i32 0, ptr %6, align 4
  store i32 1, ptr %13, align 4
  br label %34

30:                                               ; preds = %24
  %31 = load ptr, ptr %12, align 8
  %32 = load ptr, ptr %8, align 8
  %33 = load ptr, ptr %14, align 8
  call void @_ZN15RtpPlayerDialog9addPacketEP12_packet_infoPK9_rtp_info(ptr noundef align 8 dereferenceable_or_null(472) %31, ptr noundef %32, ptr noundef %33)
  store i32 0, ptr %6, align 4
  store i32 1, ptr %13, align 4
  br label %34

34:                                               ; preds = %30, %29, %23
  call void @llvm.lifetime.end.p0(i64 8, ptr %14) #26
  br label %35

35:                                               ; preds = %34, %18
  call void @llvm.lifetime.end.p0(i64 8, ptr %12) #26
  %36 = load i32, ptr %6, align 4
  ret i32 %36
}