; Function Attrs: mustprogress null_pointer_is_valid sspstrong uwtable
define noundef i32 @_ZN15RtpPlayerDialog9tapPacketEPvP12_packet_infoP12epan_dissectPKvj(ptr noundef %0, ptr noundef %1, ptr readnone captures(none) %2, ptr noundef %3, i32 %4) #0 align 2 {
  %.not = icmp eq ptr %0, null
  %.not9 = icmp eq ptr %3, null
  %or.cond = or i1 %.not, %.not9
  br i1 %or.cond, label %9, label %6

6:                                                ; preds = %5
  %7 = load i32, ptr %3, align 8
  %.not10 = icmp eq i32 %7, 2
  br i1 %.not10, label %8, label %9

8:                                                ; preds = %6
  tail call void @_ZN15RtpPlayerDialog9addPacketEP12_packet_infoPK9_rtp_info(ptr noundef nonnull align 8 dereferenceable_or_null(472) %0, ptr noundef %1, ptr noundef nonnull %3)
  br label %9

9:                                                ; preds = %8, %6, %5
  ret i32 0
}